; Function Attrs: mustprogress uwtable
define void @_ZN5faiss20IndexBinaryFromFloat5trainElPKh(ptr nocapture noundef nonnull align 8 dereferenceable(41) %0, i64 noundef %1, ptr noundef %2) unnamed_addr #1 align 2 personality ptr @__gxx_personality_v0 {
  %4 = getelementptr inbounds i8, ptr %0, i64 8
  %5 = load i32, ptr %4, align 8
  %6 = sext i32 %5 to i64
  %7 = mul nsw i64 %6, %1
  %8 = icmp ugt i64 %7, 4611686018427387903
  %9 = shl i64 %7, 2
  %10 = select i1 %8, i64 -1, i64 %9
  %11 = tail call noalias noundef nonnull ptr @_Znam(i64 noundef %10) #11
  invoke void @_ZN5faiss14binary_to_realEmPKhPf(i64 noundef %7, ptr noundef %2, ptr noundef nonnull %11)
          to label %12 unwind label %_ZNSt10unique_ptrIA_fSt14default_deleteIS0_EED2Ev.exit8

12:                                               ; preds = %3
  %13 = getelementptr inbounds i8, ptr %0, i64 32
  %14 = load ptr, ptr %13, align 8
  %15 = load ptr, ptr %14, align 8
  %16 = getelementptr inbounds i8, ptr %15, i64 16
  %17 = load ptr, ptr %16, align 8
  invoke void %17(ptr noundef nonnull align 8 dereferenceable(36) %14, i64 noundef %1, ptr noundef nonnull %11)
          to label %_ZNSt10unique_ptrIA_fSt14default_deleteIS0_EED2Ev.exit unwind label %_ZNSt10unique_ptrIA_fSt14default_deleteIS0_EED2Ev.exit8

_ZNSt10unique_ptrIA_fSt14default_deleteIS0_EED2Ev.exit: ; preds = %12
  %18 = getelementptr inbounds i8, ptr %0, i64 25
  store i8 1, ptr %18, align 1
  %19 = load ptr, ptr %13, align 8
  %20 = getelementptr inbounds i8, ptr %19, i64 16
  %21 = load i64, ptr %20, align 8
  %22 = getelementptr inbounds i8, ptr %0, i64 16
  store i64 %21, ptr %22, align 8
  tail call void @_ZdaPv(ptr noundef nonnull %11) #10
  ret void

_ZNSt10unique_ptrIA_fSt14default_deleteIS0_EED2Ev.exit8: ; preds = %12, %3
  %23 = landingpad { ptr, i32 }
          cleanup
  tail call void @_ZdaPv(ptr noundef nonnull %11) #10
  resume { ptr, i32 } %23
}